target datalayout = "e-m:e-p270:32:32-p271:32:32-p272:64:64-i64:64-i128:128-f80:128-n8:16:32:64-S128"
target triple = "x86_64-pc-linux-gnu"

%class.QWidget = type { %class.QObject, %class.QPaintDevice.base, ptr }
%class.QObject = type { ptr, %class.QScopedPointer }
%class.QScopedPointer = type { ptr }
%class.QPaintDevice.base = type <{ ptr, i16 }>
%class.QFlags = type { i32 }
%class.QFlags.0 = type { i32 }
%class.ToolDialog = type { %class.QDialog, ptr }
%class.QDialog = type { %class.QWidget }

@_ZTV10ToolDialog = external unnamed_addr constant { [59 x ptr], [10 x ptr] }, align 8

; Function Attrs: inlinehint mustprogress nounwind null_pointer_is_valid sspstrong uwtable
define linkonce_odr void @_ZN6QFlagsIN2Qt13AlignmentFlagEEC2Ev(ptr noundef align 4 dereferenceable_or_null(4) %0) unnamed_addr #2 comdat align 2 {
  %2 = alloca ptr, align 8
  store ptr %0, ptr %2, align 8
  %3 = load ptr, ptr %2, align 8
  %4 = getelementptr inbounds nuw %class.QFlags.0, ptr %3, i32 0, i32 0
  store i32 0, ptr %4, align 4
  ret void
}

; Function Attrs: mustprogress null_pointer_is_valid sspstrong uwtable
define void @_ZN10ToolDialogC2EP7QWidgetS1_6QFlagsIN2Qt10WindowTypeEE(ptr noundef align 8 dereferenceable_or_null(48) %0, ptr noundef %1, ptr noundef %2, i32 %3) unnamed_addr #0 align 2 personality ptr @__gxx_personality_v0 {
  %5 = alloca %class.QFlags, align 4
  %6 = alloca ptr, align 8
  %7 = alloca ptr, align 8
  %8 = alloca ptr, align 8
  %9 = alloca %class.QFlags, align 4
  %10 = alloca ptr, align 8
  %11 = alloca i32, align 4
  %12 = alloca ptr, align 8
  %13 = alloca %class.QFlags.0, align 4
  %14 = getelementptr inbounds nuw %class.QFlags, ptr %5, i32 0, i32 0
  store i32 %3, ptr %14, align 4
  store ptr %0, ptr %6, align 8
  store ptr %1, ptr %7, align 8
  store ptr %2, ptr %8, align 8
  %15 = load ptr, ptr %6, align 8
  %16 = load ptr, ptr %8, align 8
  call void @llvm.memcpy.p0.p0.i64(ptr align 4 %9, ptr align 4 %5, i64 4, i1 false)
  %17 = getelementptr inbounds nuw %class.QFlags, ptr %9, i32 0, i32 0
  %18 = load i32, ptr %17, align 4
  call void @_ZN7QDialogC2EP7QWidget6QFlagsIN2Qt10WindowTypeEE(ptr noundef align 8 dereferenceable_or_null(40) %15, ptr noundef %16, i32 %18)
  store ptr getelementptr inbounds inrange(-16, 456) ({ [59 x ptr], [10 x ptr] }, ptr @_ZTV10ToolDialog, i32 0, i32 0, i32 2), ptr %15, align 8
  %19 = getelementptr inbounds i8, ptr %15, i64 16
  store ptr getelementptr inbounds inrange(-16, 64) ({ [59 x ptr], [10 x ptr] }, ptr @_ZTV10ToolDialog, i32 0, i32 1, i32 2), ptr %19, align 8
  %20 = load ptr, ptr %7, align 8
  %21 = getelementptr inbounds nuw %class.ToolDialog, ptr %15, i32 0, i32 1
  store ptr %20, ptr %21, align 8
  %22 = getelementptr inbounds nuw %class.ToolDialog, ptr %15, i32 0, i32 1
  %23 = load ptr, ptr %22, align 8
  invoke void @_ZN7QWidget9setParentEPS_(ptr noundef align 8 dereferenceable_or_null(40) %23, ptr noundef %15)
          to label %24 unwind label %36

24:                                               ; preds = %4
  call void @llvm.lifetime.start.p0(i64 8, ptr %12) #12
  %25 = invoke noalias noundef ptr @_Znwm(i64 noundef 32) #16
          to label %26 unwind label %40

26:                                               ; preds = %24
  invoke void @_ZN11QVBoxLayoutC1EP7QWidget(ptr noundef align 8 dereferenceable_or_null(28) %25, ptr noundef %15)
          to label %27 unwind label %44

27:                                               ; preds = %26
  store ptr %25, ptr %12, align 8
  %28 = load ptr, ptr %12, align 8
  %29 = getelementptr inbounds nuw %class.ToolDialog, ptr %15, i32 0, i32 1
  %30 = load ptr, ptr %29, align 8
  call void @_ZN6QFlagsIN2Qt13AlignmentFlagEEC2Ev(ptr noundef align 4 dereferenceable_or_null(4) %13) #12
  %31 = getelementptr inbounds nuw %class.QFlags.0, ptr %13, i32 0, i32 0
  %32 = load i32, ptr %31, align 4
  invoke void @_ZN10QBoxLayout9addWidgetEP7QWidgeti6QFlagsIN2Qt13AlignmentFlagEE(ptr noundef align 8 dereferenceable_or_null(28) %28, ptr noundef %30, i32 noundef 0, i32 %32)
          to label %33 unwind label %40

33:                                               ; preds = %27
  %34 = load ptr, ptr %12, align 8
  invoke void @_ZN7QWidget9setLayoutEP7QLayout(ptr noundef align 8 dereferenceable_or_null(40) %15, ptr noundef %34)
          to label %35 unwind label %40

35:                                               ; preds = %33
  call void @llvm.lifetime.end.p0(i64 8, ptr %12) #12
  ret void

36:                                               ; preds = %4
  %37 = landingpad { ptr, i32 }
          cleanup
  %38 = extractvalue { ptr, i32 } %37, 0
  store ptr %38, ptr %10, align 8
  %39 = extractvalue { ptr, i32 } %37, 1
  store i32 %39, ptr %11, align 4
  br label %49

40:                                               ; preds = %33, %27, %24
  %41 = landingpad { ptr, i32 }
          cleanup
  %42 = extractvalue { ptr, i32 } %41, 0
  store ptr %42, ptr %10, align 8
  %43 = extractvalue { ptr, i32 } %41, 1
  store i32 %43, ptr %11, align 4
  br label %48

44:                                               ; preds = %26
  %45 = landingpad { ptr, i32 }
          cleanup
  %46 = extractvalue { ptr, i32 } %45, 0
  store ptr %46, ptr %10, align 8
  %47 = extractvalue { ptr, i32 } %45, 1
  store i32 %47, ptr %11, align 4
  call void @_ZdlPvm(ptr noundef %25, i64 noundef 32) #17
  br label %48

48:                                               ; preds = %44, %40
  call void @llvm.lifetime.end.p0(i64 8, ptr %12) #12
  br label %49

49:                                               ; preds = %48, %36
  call void @_ZN7QDialogD2Ev(ptr noundef align 8 dereferenceable_or_null(40) %15) #12
  br label %50

50:                                               ; preds = %49
  %51 = load ptr, ptr %10, align 8
  %52 = load i32, ptr %11, align 4
  %53 = insertvalue { ptr, i32 } poison, ptr %51, 0
  %54 = insertvalue { ptr, i32 } %53, i32 %52, 1
  resume { ptr, i32 } %54
}