; Function Attrs: mustprogress null_pointer_is_valid sspstrong uwtable
define void @_ZN10ToolDialogC2EP7QWidgetS1_6QFlagsIN2Qt10WindowTypeEE(ptr noundef align 8 dereferenceable_or_null(48) %0, ptr noundef %1, ptr noundef %2, i32 %3) unnamed_addr #0 align 2 personality ptr @__gxx_personality_v0 {
  tail call void @_ZN7QDialogC2EP7QWidget6QFlagsIN2Qt10WindowTypeEE(ptr noundef align 8 dereferenceable_or_null(40) %0, ptr noundef %2, i32 %3)
  store ptr getelementptr inbounds nuw inrange(-16, 456) (i8, ptr @_ZTV10ToolDialog, i64 16), ptr %0, align 8
  %5 = getelementptr inbounds nuw i8, ptr %0, i64 16
  store ptr getelementptr inbounds nuw inrange(-16, 64) (i8, ptr @_ZTV10ToolDialog, i64 488), ptr %5, align 8
  %6 = getelementptr inbounds nuw i8, ptr %0, i64 40
  store ptr %1, ptr %6, align 8
  invoke void @_ZN7QWidget9setParentEPS_(ptr noundef align 8 dereferenceable_or_null(40) %1, ptr noundef %0)
          to label %7 unwind label %14

7:                                                ; preds = %4
  %8 = invoke noalias noundef dereferenceable_or_null(32) ptr @_Znwm(i64 noundef 32) #17
          to label %9 unwind label %16

9:                                                ; preds = %7
  invoke void @_ZN11QVBoxLayoutC1EP7QWidget(ptr noundef align 8 dereferenceable_or_null(28) %8, ptr noundef %0)
          to label %10 unwind label %18

10:                                               ; preds = %9
  %11 = load ptr, ptr %6, align 8
  invoke void @_ZN10QBoxLayout9addWidgetEP7QWidgeti6QFlagsIN2Qt13AlignmentFlagEE(ptr noundef align 8 dereferenceable_or_null(28) %8, ptr noundef %11, i32 noundef 0, i32 0)
          to label %12 unwind label %16

12:                                               ; preds = %10
  invoke void @_ZN7QWidget9setLayoutEP7QLayout(ptr noundef align 8 dereferenceable_or_null(40) %0, ptr noundef %8)
          to label %13 unwind label %16

13:                                               ; preds = %12
  ret void

14:                                               ; preds = %4
  %15 = landingpad { ptr, i32 }
          cleanup
  br label %20

16:                                               ; preds = %12, %10, %7
  %17 = landingpad { ptr, i32 }
          cleanup
  br label %20

18:                                               ; preds = %9
  %19 = landingpad { ptr, i32 }
          cleanup
  tail call void @_ZdlPvm(ptr noundef %8, i64 noundef 32) #19
  br label %20

20:                                               ; preds = %16, %18, %14
  %.pn.pn = phi { ptr, i32 } [ %15, %14 ], [ %17, %16 ], [ %19, %18 ]
  tail call void @_ZN7QDialogD2Ev(ptr noundef align 8 dereferenceable_or_null(40) %0) #18
  resume { ptr, i32 } %.pn.pn
}